; Function Attrs: mustprogress uwtable
define dso_local void @_ZN11cmQtAutoGen12SubDirPrefixB5cxx11ESt17basic_string_viewIcSt11char_traitsIcEE(ptr dead_on_unwind noalias writable sret(%"class.std::__cxx11::basic_string") align 8 %0, i64 %1, ptr %2) local_unnamed_addr #4 align 2 personality ptr @__gxx_personality_v0 {
  %4 = alloca %"struct.std::__cxx11::basic_string<char>::__sv_wrapper", align 8
  %5 = alloca %"class.std::allocator", align 1
  %.not.i = icmp eq i64 %1, 0
  br i1 %.not.i, label %.loopexit, label %.preheader

.preheader:                                       ; preds = %3, %6
  %.1.i = phi i64 [ %7, %6 ], [ %1, %3 ]
  %.not13.i = icmp eq i64 %.1.i, 0
  br i1 %.not13.i, label %.loopexit, label %6

6:                                                ; preds = %.preheader
  %7 = add i64 %.1.i, -1
  %8 = getelementptr inbounds i8, ptr %2, i64 %7
  %9 = load i8, ptr %8, align 1
  %10 = icmp eq i8 %9, 47
  br i1 %10, label %_ZNKSt17basic_string_viewIcSt11char_traitsIcEE5rfindEcm.exit, label %.preheader, !llvm.loop !47

.loopexit:                                        ; preds = %.preheader, %3
  tail call void @_ZNSt7__cxx1112basic_stringIcSt11char_traitsIcESaIcEEC1Ev(ptr noundef nonnull align 8 dereferenceable(32) %0) #19
  br label %20

_ZNKSt17basic_string_viewIcSt11char_traitsIcEE5rfindEcm.exit: ; preds = %6
  call void @_ZNSaIcEC1Ev(ptr noundef nonnull align 1 dereferenceable(1) %5) #19
  call void @llvm.lifetime.start.p0(i64 16, ptr nonnull %4)
  %11 = call { i64, ptr } @_ZNSt7__cxx1112basic_stringIcSt11char_traitsIcESaIcEE17_S_to_string_viewESt17basic_string_viewIcS2_E(i64 %.1.i, ptr nonnull %2) #19
  %12 = extractvalue { i64, ptr } %11, 0
  %13 = extractvalue { i64, ptr } %11, 1
  call void @_ZNSt7__cxx1112basic_stringIcSt11char_traitsIcESaIcEE12__sv_wrapperC1ESt17basic_string_viewIcS2_E(ptr noundef nonnull align 8 dereferenceable(16) %4, i64 %12, ptr %13) #19
  %14 = load i64, ptr %4, align 8
  %15 = getelementptr inbounds nuw i8, ptr %4, i64 8
  %16 = load ptr, ptr %15, align 8
  invoke void @_ZNSt7__cxx1112basic_stringIcSt11char_traitsIcESaIcEEC2ENS4_12__sv_wrapperERKS3_(ptr noundef nonnull align 8 dereferenceable(32) %0, i64 %14, ptr %16, ptr noundef nonnull align 1 dereferenceable(1) %5)
          to label %17 unwind label %18

17:                                               ; preds = %_ZNKSt17basic_string_viewIcSt11char_traitsIcEE5rfindEcm.exit
  call void @llvm.lifetime.end.p0(i64 16, ptr nonnull %4)
  call void @_ZNSaIcED1Ev(ptr noundef nonnull align 1 dereferenceable(1) %5) #19
  br label %20

18:                                               ; preds = %_ZNKSt17basic_string_viewIcSt11char_traitsIcEE5rfindEcm.exit
  %19 = landingpad { ptr, i32 }
          cleanup
  call void @_ZNSaIcED1Ev(ptr noundef nonnull align 1 dereferenceable(1) %5) #19
  resume { ptr, i32 } %19

20:                                               ; preds = %17, %.loopexit
  ret void
}